; ModuleID = 'source-C-CXX/53/1844.cpp'
source_filename = "source-C-CXX/53/1844.cpp"
target datalayout = "e-m:e-p270:32:32-p271:32:32-p272:64:64-i64:64-f80:128-n8:16:32:64-S128"
target triple = "x86_64-pc-linux-gnu"

%"class.std::ios_base::Init" = type { i8 }
%"class.std::basic_istream" = type { i32 (...)**, i64, %"class.std::basic_ios" }
%"class.std::basic_ios" = type { %"class.std::ios_base", %"class.std::basic_ostream"*, i8, i8, %"class.std::basic_streambuf"*, %"class.std::ctype"*, %"class.std::num_put"*, %"class.std::num_get"* }
%"class.std::ios_base" = type { i32 (...)**, i64, i64, i32, i32, i32, %"struct.std::ios_base::_Callback_list"*, %"struct.std::ios_base::_Words", [8 x %"struct.std::ios_base::_Words"], i32, %"struct.std::ios_base::_Words"*, %"class.std::locale" }
%"struct.std::ios_base::_Callback_list" = type { %"struct.std::ios_base::_Callback_list"*, void (i32, %"class.std::ios_base"*, i32)*, i32, i32 }
%"struct.std::ios_base::_Words" = type { i8*, i64 }
%"class.std::locale" = type { %"class.std::locale::_Impl"* }
%"class.std::locale::_Impl" = type { i32, %"class.std::locale::facet"**, i64, %"class.std::locale::facet"**, i8** }
%"class.std::locale::facet" = type <{ i32 (...)**, i32, [4 x i8] }>
%"class.std::basic_ostream" = type { i32 (...)**, %"class.std::basic_ios" }
%"class.std::basic_streambuf" = type { i32 (...)**, i8*, i8*, i8*, i8*, i8*, i8*, %"class.std::locale" }
%"class.std::ctype" = type <{ %"class.std::locale::facet.base", [4 x i8], %struct.__locale_struct*, i8, [7 x i8], i32*, i32*, i16*, i8, [256 x i8], [256 x i8], i8, [6 x i8] }>
%"class.std::locale::facet.base" = type <{ i32 (...)**, i32 }>
%struct.__locale_struct = type { [13 x %struct.__locale_data*], i16*, i32*, i32*, [13 x i8*] }
%struct.__locale_data = type opaque
%"class.std::num_put" = type { %"class.std::locale::facet.base", [4 x i8] }
%"class.std::num_get" = type { %"class.std::locale::facet.base", [4 x i8] }

@_ZStL8__ioinit = internal global %"class.std::ios_base::Init" zeroinitializer, align 1
@__dso_handle = external hidden global i8
@_ZSt3cin = external global %"class.std::basic_istream", align 8
@_ZSt4cout = external global %"class.std::basic_ostream", align 8
@llvm.global_ctors = appending global [1 x { i32, void ()*, i8* }] [{ i32, void ()*, i8* } { i32 65535, void ()* @_GLOBAL__sub_I_1844.cpp, i8* null }]

declare void @_ZNSt8ios_base4InitC1Ev(%"class.std::ios_base::Init"* nonnull align 1 dereferenceable(1)) unnamed_addr #0

; Function Attrs: nounwind
declare void @_ZNSt8ios_base4InitD1Ev(%"class.std::ios_base::Init"* nonnull align 1 dereferenceable(1)) unnamed_addr #1

; Function Attrs: nofree nounwind
declare i32 @__cxa_atexit(void (i8*)*, i8*, i8*) local_unnamed_addr #2

; Function Attrs: mustprogress norecurse sspstrong uwtable
define dso_local i32 @main() local_unnamed_addr #3 {
  %1 = alloca [100 x i32], align 16
  %2 = alloca i32, align 4
  %3 = alloca i32, align 4
  %4 = bitcast [100 x i32]* %1 to i8*
  call void @llvm.lifetime.start.p0i8(i64 400, i8* nonnull %4) #7
  call void @llvm.memset.p0i8.i64(i8* noundef nonnull align 16 dereferenceable(400) %4, i8 0, i64 400, i1 false)
  %5 = bitcast i32* %2 to i8*
  call void @llvm.lifetime.start.p0i8(i64 4, i8* nonnull %5) #7
  %6 = bitcast i32* %3 to i8*
  call void @llvm.lifetime.start.p0i8(i64 4, i8* nonnull %6) #7
  %7 = call nonnull align 8 dereferenceable(16) %"class.std::basic_istream"* @_ZNSirsERi(%"class.std::basic_istream"* nonnull align 8 dereferenceable(16) @_ZSt3cin, i32* nonnull align 4 dereferenceable(4) %2)
  %8 = call nonnull align 8 dereferenceable(16) %"class.std::basic_istream"* @_ZNSirsERi(%"class.std::basic_istream"* nonnull align 8 dereferenceable(16) %7, i32* nonnull align 4 dereferenceable(4) %3)
  %9 = load i32, i32* %2, align 4, !tbaa !5
  %10 = load i32, i32* %3, align 4, !tbaa !5
  %11 = add nsw i32 %10, %9
  %12 = sext i32 %9 to i64
  %13 = getelementptr inbounds [100 x i32], [100 x i32]* %1, i64 0, i64 %12
  %14 = add nsw i32 %9, -1
  %15 = icmp sgt i32 %9, 1
  %16 = getelementptr inbounds [100 x i32], [100 x i32]* %1, i64 0, i64 1
  br i1 %15, label %17, label %42

17:                                               ; preds = %0
  %18 = zext i32 %9 to i64
  %19 = getelementptr inbounds [100 x i32], [100 x i32]* %1, i64 0, i64 %18
  br label %20

20:                                               ; preds = %17, %31
  %21 = phi i32 [ %33, %31 ], [ %11, %17 ]
  store i32 %21, i32* %13, align 4, !tbaa !5
  %22 = load i32, i32* %19, align 4, !tbaa !5
  br label %23

23:                                               ; preds = %20, %34
  %24 = phi i32 [ %22, %20 ], [ %37, %34 ]
  %25 = phi i32 [ %9, %20 ], [ %38, %34 ]
  %26 = srem i32 %24, %14
  %27 = icmp eq i32 %26, 0
  br i1 %27, label %34, label %28

28:                                               ; preds = %34, %23
  %29 = load i32, i32* %16, align 4, !tbaa !5
  %30 = icmp eq i32 %29, 0
  br i1 %30, label %31, label %50

31:                                               ; preds = %28
  %32 = load i32, i32* %13, align 4, !tbaa !5
  %33 = add nsw i32 %32, %9
  br label %20, !llvm.loop !9

34:                                               ; preds = %23
  %35 = mul nsw i32 %24, %9
  %36 = sdiv i32 %35, %14
  %37 = add nsw i32 %36, %10
  %38 = add nsw i32 %25, -1
  %39 = zext i32 %38 to i64
  %40 = getelementptr inbounds [100 x i32], [100 x i32]* %1, i64 0, i64 %39
  store i32 %37, i32* %40, align 4, !tbaa !5
  %41 = icmp sgt i32 %25, 2
  br i1 %41, label %23, label %28, !llvm.loop !11

42:                                               ; preds = %0
  store i32 %11, i32* %13, align 4, !tbaa !5
  %43 = load i32, i32* %16, align 4, !tbaa !5
  %44 = icmp eq i32 %43, 0
  br i1 %44, label %45, label %50

45:                                               ; preds = %42, %45
  %46 = phi i32 [ %47, %45 ], [ %11, %42 ]
  %47 = add nsw i32 %46, %9
  store i32 %47, i32* %13, align 4, !tbaa !5
  %48 = load i32, i32* %16, align 4, !tbaa !5
  %49 = icmp eq i32 %48, 0
  br i1 %49, label %45, label %50, !llvm.loop !9

50:                                               ; preds = %45, %28, %42
  %51 = phi i32 [ %43, %42 ], [ %29, %28 ], [ %48, %45 ]
  %52 = call nonnull align 8 dereferenceable(8) %"class.std::basic_ostream"* @_ZNSolsEi(%"class.std::basic_ostream"* nonnull align 8 dereferenceable(8) @_ZSt4cout, i32 %51)
  call void @llvm.lifetime.end.p0i8(i64 4, i8* nonnull %6) #7
  call void @llvm.lifetime.end.p0i8(i64 4, i8* nonnull %5) #7
  call void @llvm.lifetime.end.p0i8(i64 400, i8* nonnull %4) #7
  ret i32 0
}

; Function Attrs: argmemonly mustprogress nofree nosync nounwind willreturn
declare void @llvm.lifetime.start.p0i8(i64 immarg, i8* nocapture) #4

; Function Attrs: argmemonly mustprogress nofree nounwind willreturn writeonly
declare void @llvm.memset.p0i8.i64(i8* nocapture writeonly, i8, i64, i1 immarg) #5

declare nonnull align 8 dereferenceable(16) %"class.std::basic_istream"* @_ZNSirsERi(%"class.std::basic_istream"* nonnull align 8 dereferenceable(16), i32* nonnull align 4 dereferenceable(4)) local_unnamed_addr #0

declare nonnull align 8 dereferenceable(8) %"class.std::basic_ostream"* @_ZNSolsEi(%"class.std::basic_ostream"* nonnull align 8 dereferenceable(8), i32) local_unnamed_addr #0

; Function Attrs: argmemonly mustprogress nofree nosync nounwind willreturn
declare void @llvm.lifetime.end.p0i8(i64 immarg, i8* nocapture) #4

; Function Attrs: sspstrong uwtable
define internal void @_GLOBAL__sub_I_1844.cpp() #6 section ".text.startup" {
  tail call void @_ZNSt8ios_base4InitC1Ev(%"class.std::ios_base::Init"* nonnull align 1 dereferenceable(1) @_ZStL8__ioinit)
  %1 = tail call i32 @__cxa_atexit(void (i8*)* bitcast (void (%"class.std::ios_base::Init"*)* @_ZNSt8ios_base4InitD1Ev to void (i8*)*), i8* getelementptr inbounds (%"class.std::ios_base::Init", %"class.std::ios_base::Init"* @_ZStL8__ioinit, i64 0, i32 0), i8* nonnull @__dso_handle) #7
  ret void
}


!llvm.module.flags = !{!0, !1, !2, !3}
!llvm.ident = !{!4}

!0 = !{i32 1, !"wchar_size", i32 4}
!1 = !{i32 7, !"PIC Level", i32 2}
!2 = !{i32 7, !"PIE Level", i32 2}
!3 = !{i32 7, !"uwtable", i32 1}
!4 = !{!"clang version 13.0.0"}
!5 = !{!6, !6, i64 0}
!6 = !{!"int", !7, i64 0}
!7 = !{!"omnipotent char", !8, i64 0}
!8 = !{!"Simple C++ TBAA"}
!9 = distinct !{!9, !10}
!10 = !{!"llvm.loop.mustprogress"}
!11 = distinct !{!11, !10}
